target datalayout = "e-m:e-p270:32:32-p271:32:32-p272:64:64-i64:64-i128:128-f80:128-n8:16:32:64-S128"
target triple = "x86_64-pc-linux-gnu"

%struct.H5E_cls_t = type { i8, ptr, ptr, ptr }
%struct.H5E_msg_t = type { i8, ptr, i32, ptr }
%struct.H5E_print_t = type { ptr, %struct.H5E_cls_t }
%struct.H5E_error1_t = type { i64, i64, ptr, ptr, i32, ptr }

@H5E_init_g = external global i8, align 1
@H5_libterm_g = external global i8, align 1
@stderr = external global ptr, align 8
@.str.389 = private unnamed_addr constant [21 x i8] c"No major description\00", align 1
@.str.390 = private unnamed_addr constant [21 x i8] c"No minor description\00", align 1
@.str.391 = private unnamed_addr constant [35 x i8] c"%s-DIAG: Error detected in %s (%s)\00", align 1
@.str.392 = private unnamed_addr constant [7 x i8] c"(null)\00", align 1
@.str.393 = private unnamed_addr constant [3 x i8] c":\0A\00", align 1
@.str.394 = private unnamed_addr constant [34 x i8] c"%*s#%03d: %s line %u in %s()%s%s\0A\00", align 1
@.str.395 = private unnamed_addr constant [1 x i8] zeroinitializer, align 1
@.str.396 = private unnamed_addr constant [3 x i8] c": \00", align 1
@.str.397 = private unnamed_addr constant [14 x i8] c"%*smajor: %s\0A\00", align 1
@.str.398 = private unnamed_addr constant [14 x i8] c"%*sminor: %s\0A\00", align 1

; Function Attrs: nounwind uwtable
define internal i32 @H5E__walk1_cb(i32 noundef %0, ptr noundef %1, ptr noundef %2) #0 {
  %4 = alloca i32, align 4
  %5 = alloca ptr, align 8
  %6 = alloca ptr, align 8
  %7 = alloca ptr, align 8
  %8 = alloca ptr, align 8
  %9 = alloca ptr, align 8
  %10 = alloca ptr, align 8
  %11 = alloca ptr, align 8
  %12 = alloca ptr, align 8
  %13 = alloca ptr, align 8
  %14 = alloca i8, align 1
  %15 = alloca i32, align 4
  store i32 %0, ptr %4, align 4, !tbaa !3
  store ptr %1, ptr %5, align 8, !tbaa !70
  store ptr %2, ptr %6, align 8, !tbaa !49
  call void @llvm.lifetime.start.p0(i64 8, ptr %7) #9
  %16 = load ptr, ptr %6, align 8, !tbaa !49
  store ptr %16, ptr %7, align 8, !tbaa !72
  call void @llvm.lifetime.start.p0(i64 8, ptr %8) #9
  call void @llvm.lifetime.start.p0(i64 8, ptr %9) #9
  call void @llvm.lifetime.start.p0(i64 8, ptr %10) #9
  call void @llvm.lifetime.start.p0(i64 8, ptr %11) #9
  call void @llvm.lifetime.start.p0(i64 8, ptr %12) #9
  store ptr @.str.389, ptr %12, align 8, !tbaa !13
  call void @llvm.lifetime.start.p0(i64 8, ptr %13) #9
  store ptr @.str.390, ptr %13, align 8, !tbaa !13
  call void @llvm.lifetime.start.p0(i64 1, ptr %14) #9
  store i8 1, ptr %14, align 1, !tbaa !7
  call void @llvm.lifetime.start.p0(i64 4, ptr %15) #9
  store i32 0, ptr %15, align 4, !tbaa !3
  %17 = load i8, ptr @H5E_init_g, align 1, !tbaa !7, !range !9, !noundef !10
  %18 = trunc i8 %17 to i1
  br i1 %18, label %23, label %19

19:                                               ; preds = %3
  %20 = load i8, ptr @H5_libterm_g, align 1, !tbaa !7, !range !9, !noundef !10
  %21 = trunc i8 %20 to i1
  %22 = xor i1 %21, true
  br label %23

23:                                               ; preds = %19, %3
  %24 = phi i1 [ true, %3 ], [ %22, %19 ]
  %25 = xor i1 %24, true
  %26 = xor i1 %25, true
  %27 = zext i1 %26 to i32
  %28 = sext i32 %27 to i64
  %29 = call i64 @llvm.expect.i64(i64 %28, i64 1)
  %30 = icmp ne i64 %29, 0
  br i1 %30, label %31, label %213

31:                                               ; preds = %23
  %32 = load ptr, ptr %6, align 8, !tbaa !49
  %33 = icmp ne ptr %32, null
  br i1 %33, label %36, label %34

34:                                               ; preds = %31
  %35 = load ptr, ptr @stderr, align 8, !tbaa !63
  store ptr %35, ptr %8, align 8, !tbaa !63
  br label %40

36:                                               ; preds = %31
  %37 = load ptr, ptr %7, align 8, !tbaa !72
  %38 = getelementptr inbounds nuw %struct.H5E_print_t, ptr %37, i32 0, i32 0
  %39 = load ptr, ptr %38, align 8, !tbaa !65
  store ptr %39, ptr %8, align 8, !tbaa !63
  br label %40

40:                                               ; preds = %36, %34
  %41 = load ptr, ptr %5, align 8, !tbaa !70
  %42 = getelementptr inbounds nuw %struct.H5E_error1_t, ptr %41, i32 0, i32 0
  %43 = load i64, ptr %42, align 8, !tbaa !74
  %44 = call ptr @H5I_object_verify(i64 noundef %43, i32 noundef 13)
  store ptr %44, ptr %10, align 8, !tbaa !39
  %45 = load ptr, ptr %5, align 8, !tbaa !70
  %46 = getelementptr inbounds nuw %struct.H5E_error1_t, ptr %45, i32 0, i32 1
  %47 = load i64, ptr %46, align 8, !tbaa !76
  %48 = call ptr @H5I_object_verify(i64 noundef %47, i32 noundef 13)
  store ptr %48, ptr %11, align 8, !tbaa !39
  %49 = load ptr, ptr %10, align 8, !tbaa !39
  %50 = icmp ne ptr %49, null
  br i1 %50, label %51, label %54

51:                                               ; preds = %40
  %52 = load ptr, ptr %11, align 8, !tbaa !39
  %53 = icmp ne ptr %52, null
  br i1 %53, label %58, label %54

54:                                               ; preds = %51, %40
  br label %55

55:                                               ; preds = %54
  store i32 -1, ptr %15, align 4, !tbaa !3
  br label %212

56:                                               ; No predecessors!
  br label %57

57:                                               ; preds = %56
  br label %58

58:                                               ; preds = %57, %51
  %59 = load ptr, ptr %10, align 8, !tbaa !39
  %60 = getelementptr inbounds nuw %struct.H5E_msg_t, ptr %59, i32 0, i32 1
  %61 = load ptr, ptr %60, align 8, !tbaa !45
  %62 = icmp ne ptr %61, null
  br i1 %62, label %63, label %67

63:                                               ; preds = %58
  %64 = load ptr, ptr %10, align 8, !tbaa !39
  %65 = getelementptr inbounds nuw %struct.H5E_msg_t, ptr %64, i32 0, i32 1
  %66 = load ptr, ptr %65, align 8, !tbaa !45
  store ptr %66, ptr %12, align 8, !tbaa !13
  br label %67

67:                                               ; preds = %63, %58
  %68 = load ptr, ptr %11, align 8, !tbaa !39
  %69 = getelementptr inbounds nuw %struct.H5E_msg_t, ptr %68, i32 0, i32 1
  %70 = load ptr, ptr %69, align 8, !tbaa !45
  %71 = icmp ne ptr %70, null
  br i1 %71, label %72, label %76

72:                                               ; preds = %67
  %73 = load ptr, ptr %11, align 8, !tbaa !39
  %74 = getelementptr inbounds nuw %struct.H5E_msg_t, ptr %73, i32 0, i32 1
  %75 = load ptr, ptr %74, align 8, !tbaa !45
  store ptr %75, ptr %13, align 8, !tbaa !13
  br label %76

76:                                               ; preds = %72, %67
  %77 = load ptr, ptr %10, align 8, !tbaa !39
  %78 = getelementptr inbounds nuw %struct.H5E_msg_t, ptr %77, i32 0, i32 3
  %79 = load ptr, ptr %78, align 8, !tbaa !43
  store ptr %79, ptr %9, align 8, !tbaa !32
  %80 = load ptr, ptr %7, align 8, !tbaa !72
  %81 = getelementptr inbounds nuw %struct.H5E_print_t, ptr %80, i32 0, i32 1
  %82 = getelementptr inbounds nuw %struct.H5E_cls_t, ptr %81, i32 0, i32 2
  %83 = load ptr, ptr %82, align 8, !tbaa !77
  %84 = icmp eq ptr %83, null
  br i1 %84, label %95, label %85

85:                                               ; preds = %76
  %86 = load ptr, ptr %9, align 8, !tbaa !32
  %87 = getelementptr inbounds nuw %struct.H5E_cls_t, ptr %86, i32 0, i32 2
  %88 = load ptr, ptr %87, align 8, !tbaa !37
  %89 = load ptr, ptr %7, align 8, !tbaa !72
  %90 = getelementptr inbounds nuw %struct.H5E_print_t, ptr %89, i32 0, i32 1
  %91 = getelementptr inbounds nuw %struct.H5E_cls_t, ptr %90, i32 0, i32 2
  %92 = load ptr, ptr %91, align 8, !tbaa !77
  %93 = call i32 @strcmp(ptr noundef %88, ptr noundef %92) #10
  %94 = icmp ne i32 %93, 0
  br i1 %94, label %95, label %169

95:                                               ; preds = %85, %76
  %96 = load ptr, ptr %9, align 8, !tbaa !32
  %97 = getelementptr inbounds nuw %struct.H5E_cls_t, ptr %96, i32 0, i32 1
  %98 = load ptr, ptr %97, align 8, !tbaa !36
  %99 = icmp ne ptr %98, null
  br i1 %99, label %100, label %107

100:                                              ; preds = %95
  %101 = load ptr, ptr %9, align 8, !tbaa !32
  %102 = getelementptr inbounds nuw %struct.H5E_cls_t, ptr %101, i32 0, i32 1
  %103 = load ptr, ptr %102, align 8, !tbaa !36
  %104 = load ptr, ptr %7, align 8, !tbaa !72
  %105 = getelementptr inbounds nuw %struct.H5E_print_t, ptr %104, i32 0, i32 1
  %106 = getelementptr inbounds nuw %struct.H5E_cls_t, ptr %105, i32 0, i32 1
  store ptr %103, ptr %106, align 8, !tbaa !78
  br label %107

107:                                              ; preds = %100, %95
  %108 = load ptr, ptr %9, align 8, !tbaa !32
  %109 = getelementptr inbounds nuw %struct.H5E_cls_t, ptr %108, i32 0, i32 2
  %110 = load ptr, ptr %109, align 8, !tbaa !37
  %111 = icmp ne ptr %110, null
  br i1 %111, label %112, label %119

112:                                              ; preds = %107
  %113 = load ptr, ptr %9, align 8, !tbaa !32
  %114 = getelementptr inbounds nuw %struct.H5E_cls_t, ptr %113, i32 0, i32 2
  %115 = load ptr, ptr %114, align 8, !tbaa !37
  %116 = load ptr, ptr %7, align 8, !tbaa !72
  %117 = getelementptr inbounds nuw %struct.H5E_print_t, ptr %116, i32 0, i32 1
  %118 = getelementptr inbounds nuw %struct.H5E_cls_t, ptr %117, i32 0, i32 2
  store ptr %115, ptr %118, align 8, !tbaa !77
  br label %119

119:                                              ; preds = %112, %107
  %120 = load ptr, ptr %9, align 8, !tbaa !32
  %121 = getelementptr inbounds nuw %struct.H5E_cls_t, ptr %120, i32 0, i32 3
  %122 = load ptr, ptr %121, align 8, !tbaa !38
  %123 = icmp ne ptr %122, null
  br i1 %123, label %124, label %131

124:                                              ; preds = %119
  %125 = load ptr, ptr %9, align 8, !tbaa !32
  %126 = getelementptr inbounds nuw %struct.H5E_cls_t, ptr %125, i32 0, i32 3
  %127 = load ptr, ptr %126, align 8, !tbaa !38
  %128 = load ptr, ptr %7, align 8, !tbaa !72
  %129 = getelementptr inbounds nuw %struct.H5E_print_t, ptr %128, i32 0, i32 1
  %130 = getelementptr inbounds nuw %struct.H5E_cls_t, ptr %129, i32 0, i32 3
  store ptr %127, ptr %130, align 8, !tbaa !79
  br label %131

131:                                              ; preds = %124, %119
  %132 = load ptr, ptr %8, align 8, !tbaa !63
  %133 = load ptr, ptr %9, align 8, !tbaa !32
  %134 = getelementptr inbounds nuw %struct.H5E_cls_t, ptr %133, i32 0, i32 1
  %135 = load ptr, ptr %134, align 8, !tbaa !36
  %136 = icmp ne ptr %135, null
  br i1 %136, label %137, label %141

137:                                              ; preds = %131
  %138 = load ptr, ptr %9, align 8, !tbaa !32
  %139 = getelementptr inbounds nuw %struct.H5E_cls_t, ptr %138, i32 0, i32 1
  %140 = load ptr, ptr %139, align 8, !tbaa !36
  br label %142

141:                                              ; preds = %131
  br label %142

142:                                              ; preds = %141, %137
  %143 = phi ptr [ %140, %137 ], [ @.str.392, %141 ]
  %144 = load ptr, ptr %9, align 8, !tbaa !32
  %145 = getelementptr inbounds nuw %struct.H5E_cls_t, ptr %144, i32 0, i32 2
  %146 = load ptr, ptr %145, align 8, !tbaa !37
  %147 = icmp ne ptr %146, null
  br i1 %147, label %148, label %152

148:                                              ; preds = %142
  %149 = load ptr, ptr %9, align 8, !tbaa !32
  %150 = getelementptr inbounds nuw %struct.H5E_cls_t, ptr %149, i32 0, i32 2
  %151 = load ptr, ptr %150, align 8, !tbaa !37
  br label %153

152:                                              ; preds = %142
  br label %153

153:                                              ; preds = %152, %148
  %154 = phi ptr [ %151, %148 ], [ @.str.392, %152 ]
  %155 = load ptr, ptr %9, align 8, !tbaa !32
  %156 = getelementptr inbounds nuw %struct.H5E_cls_t, ptr %155, i32 0, i32 3
  %157 = load ptr, ptr %156, align 8, !tbaa !38
  %158 = icmp ne ptr %157, null
  br i1 %158, label %159, label %163

159:                                              ; preds = %153
  %160 = load ptr, ptr %9, align 8, !tbaa !32
  %161 = getelementptr inbounds nuw %struct.H5E_cls_t, ptr %160, i32 0, i32 3
  %162 = load ptr, ptr %161, align 8, !tbaa !38
  br label %164

163:                                              ; preds = %153
  br label %164

164:                                              ; preds = %163, %159
  %165 = phi ptr [ %162, %159 ], [ @.str.392, %163 ]
  %166 = call i32 (ptr, ptr, ...) @fprintf(ptr noundef %132, ptr noundef @.str.391, ptr noundef %143, ptr noundef %154, ptr noundef %165) #9
  %167 = load ptr, ptr %8, align 8, !tbaa !63
  %168 = call i32 (ptr, ptr, ...) @fprintf(ptr noundef %167, ptr noundef @.str.393) #9
  br label %169

169:                                              ; preds = %164, %85
  %170 = load ptr, ptr %5, align 8, !tbaa !70
  %171 = getelementptr inbounds nuw %struct.H5E_error1_t, ptr %170, i32 0, i32 5
  %172 = load ptr, ptr %171, align 8, !tbaa !80
  %173 = icmp eq ptr %172, null
  br i1 %173, label %180, label %174

174:                                              ; preds = %169
  %175 = load ptr, ptr %5, align 8, !tbaa !70
  %176 = getelementptr inbounds nuw %struct.H5E_error1_t, ptr %175, i32 0, i32 5
  %177 = load ptr, ptr %176, align 8, !tbaa !80
  %178 = call i64 @strlen(ptr noundef %177) #10
  %179 = icmp eq i64 %178, 0
  br i1 %179, label %180, label %181

180:                                              ; preds = %174, %169
  store i8 0, ptr %14, align 1, !tbaa !7
  br label %181

181:                                              ; preds = %180, %174
  %182 = load ptr, ptr %8, align 8, !tbaa !63
  %183 = load i32, ptr %4, align 4, !tbaa !3
  %184 = load ptr, ptr %5, align 8, !tbaa !70
  %185 = getelementptr inbounds nuw %struct.H5E_error1_t, ptr %184, i32 0, i32 3
  %186 = load ptr, ptr %185, align 8, !tbaa !81
  %187 = load ptr, ptr %5, align 8, !tbaa !70
  %188 = getelementptr inbounds nuw %struct.H5E_error1_t, ptr %187, i32 0, i32 4
  %189 = load i32, ptr %188, align 8, !tbaa !82
  %190 = load ptr, ptr %5, align 8, !tbaa !70
  %191 = getelementptr inbounds nuw %struct.H5E_error1_t, ptr %190, i32 0, i32 2
  %192 = load ptr, ptr %191, align 8, !tbaa !83
  %193 = load i8, ptr %14, align 1, !tbaa !7, !range !9, !noundef !10
  %194 = trunc i8 %193 to i1
  %195 = select i1 %194, ptr @.str.396, ptr @.str.395
  %196 = load i8, ptr %14, align 1, !tbaa !7, !range !9, !noundef !10
  %197 = trunc i8 %196 to i1
  br i1 %197, label %198, label %202

198:                                              ; preds = %181
  %199 = load ptr, ptr %5, align 8, !tbaa !70
  %200 = getelementptr inbounds nuw %struct.H5E_error1_t, ptr %199, i32 0, i32 5
  %201 = load ptr, ptr %200, align 8, !tbaa !80
  br label %203

202:                                              ; preds = %181
  br label %203

203:                                              ; preds = %202, %198
  %204 = phi ptr [ %201, %198 ], [ @.str.395, %202 ]
  %205 = call i32 (ptr, ptr, ...) @fprintf(ptr noundef %182, ptr noundef @.str.394, i32 noundef 2, ptr noundef @.str.395, i32 noundef %183, ptr noundef %186, i32 noundef %189, ptr noundef %192, ptr noundef %195, ptr noundef %204) #9
  %206 = load ptr, ptr %8, align 8, !tbaa !63
  %207 = load ptr, ptr %12, align 8, !tbaa !13
  %208 = call i32 (ptr, ptr, ...) @fprintf(ptr noundef %206, ptr noundef @.str.397, i32 noundef 4, ptr noundef @.str.395, ptr noundef %207) #9
  %209 = load ptr, ptr %8, align 8, !tbaa !63
  %210 = load ptr, ptr %13, align 8, !tbaa !13
  %211 = call i32 (ptr, ptr, ...) @fprintf(ptr noundef %209, ptr noundef @.str.398, i32 noundef 4, ptr noundef @.str.395, ptr noundef %210) #9
  br label %212

212:                                              ; preds = %203, %55
  br label %213

213:                                              ; preds = %212, %23
  %214 = load i32, ptr %15, align 4, !tbaa !3
  call void @llvm.lifetime.end.p0(i64 4, ptr %15) #9
  call void @llvm.lifetime.end.p0(i64 1, ptr %14) #9
  call void @llvm.lifetime.end.p0(i64 8, ptr %13) #9
  call void @llvm.lifetime.end.p0(i64 8, ptr %12) #9
  call void @llvm.lifetime.end.p0(i64 8, ptr %11) #9
  call void @llvm.lifetime.end.p0(i64 8, ptr %10) #9
  call void @llvm.lifetime.end.p0(i64 8, ptr %9) #9
  call void @llvm.lifetime.end.p0(i64 8, ptr %8) #9
  call void @llvm.lifetime.end.p0(i64 8, ptr %7) #9
  ret i32 %214
}