; Function Attrs: nounwind uwtable
define internal range(i32 -1, 1) i32 @H5E__walk1_cb(i32 noundef %0, ptr noundef readonly captures(none) %1, ptr noundef captures(address_is_null) %2) #0 {
  %4 = load i8, ptr @H5E_init_g, align 1, !tbaa !3, !range !7, !noundef !8
  %5 = trunc nuw i8 %4 to i1
  %6 = load i8, ptr @H5_libterm_g, align 1, !range !7
  %7 = trunc nuw i8 %6 to i1
  %8 = xor i1 %7, true
  %9 = select i1 %5, i1 true, i1 %8
  br i1 %9, label %10, label %69, !prof !9

10:                                               ; preds = %3
  %.not = icmp eq ptr %2, null
  %stderr. = select i1 %.not, ptr @stderr, ptr %2
  %.050 = load ptr, ptr %stderr., align 8, !tbaa !69
  %11 = load i64, ptr %1, align 8, !tbaa !70
  %12 = tail call ptr @H5I_object_verify(i64 noundef %11, i32 noundef 13) #16
  %13 = getelementptr inbounds nuw i8, ptr %1, i64 8
  %14 = load i64, ptr %13, align 8, !tbaa !72
  %15 = tail call ptr @H5I_object_verify(i64 noundef %14, i32 noundef 13) #16
  %16 = icmp ne ptr %12, null
  %17 = icmp ne ptr %15, null
  %or.cond = select i1 %16, i1 %17, i1 false
  br i1 %or.cond, label %18, label %69

18:                                               ; preds = %10
  %19 = getelementptr inbounds nuw i8, ptr %12, i64 8
  %20 = load ptr, ptr %19, align 8, !tbaa !48
  %.not64 = icmp eq ptr %20, null
  %spec.select = select i1 %.not64, ptr @.str.389, ptr %20
  %21 = getelementptr inbounds nuw i8, ptr %15, i64 8
  %22 = load ptr, ptr %21, align 8, !tbaa !48
  %.not65 = icmp eq ptr %22, null
  %.048 = select i1 %.not65, ptr @.str.390, ptr %22
  %23 = getelementptr inbounds nuw i8, ptr %12, i64 24
  %24 = load ptr, ptr %23, align 8, !tbaa !46
  %25 = getelementptr inbounds nuw i8, ptr %2, i64 24
  %26 = load ptr, ptr %25, align 8, !tbaa !73
  %27 = icmp eq ptr %26, null
  br i1 %27, label %32, label %28

28:                                               ; preds = %18
  %29 = getelementptr inbounds nuw i8, ptr %24, i64 16
  %30 = load ptr, ptr %29, align 8, !tbaa !41
  %31 = tail call i32 @strcmp(ptr noundef nonnull dereferenceable(1) %30, ptr noundef nonnull dereferenceable(1) %26) #17
  %.not66 = icmp eq i32 %31, 0
  br i1 %.not66, label %54, label %32

32:                                               ; preds = %28, %18
  %33 = getelementptr inbounds nuw i8, ptr %24, i64 8
  %34 = load ptr, ptr %33, align 8, !tbaa !40
  %.not67 = icmp eq ptr %34, null
  br i1 %.not67, label %37, label %35

35:                                               ; preds = %32
  %36 = getelementptr inbounds nuw i8, ptr %2, i64 16
  store ptr %34, ptr %36, align 8, !tbaa !74
  br label %37

37:                                               ; preds = %35, %32
  %38 = getelementptr inbounds nuw i8, ptr %24, i64 16
  %39 = load ptr, ptr %38, align 8, !tbaa !41
  %.not68 = icmp eq ptr %39, null
  br i1 %.not68, label %41, label %40

40:                                               ; preds = %37
  store ptr %39, ptr %25, align 8, !tbaa !73
  br label %41

41:                                               ; preds = %40, %37
  %42 = getelementptr inbounds nuw i8, ptr %24, i64 24
  %43 = load ptr, ptr %42, align 8, !tbaa !42
  %.not69 = icmp eq ptr %43, null
  br i1 %.not69, label %46, label %44

44:                                               ; preds = %41
  %45 = getelementptr inbounds nuw i8, ptr %2, i64 32
  store ptr %43, ptr %45, align 8, !tbaa !75
  %.pre = load ptr, ptr %42, align 8, !tbaa !42
  br label %46

46:                                               ; preds = %44, %41
  %47 = phi ptr [ %.pre, %44 ], [ null, %41 ]
  %48 = load ptr, ptr %33, align 8, !tbaa !40
  %.not70 = icmp eq ptr %48, null
  %spec.select73 = select i1 %.not70, ptr @.str.392, ptr %48
  %49 = load ptr, ptr %38, align 8, !tbaa !41
  %.not71 = icmp eq ptr %49, null
  %50 = select i1 %.not71, ptr @.str.392, ptr %49
  %.not72 = icmp eq ptr %47, null
  %51 = select i1 %.not72, ptr @.str.392, ptr %47
  %52 = tail call i32 (ptr, ptr, ...) @fprintf(ptr noundef %.050, ptr noundef nonnull @.str.391, ptr noundef nonnull %spec.select73, ptr noundef nonnull %50, ptr noundef nonnull %51) #16
  %53 = tail call i64 @fwrite(ptr nonnull @.str.393, i64 2, i64 1, ptr %.050)
  br label %54

54:                                               ; preds = %46, %28
  %55 = getelementptr inbounds nuw i8, ptr %1, i64 40
  %56 = load ptr, ptr %55, align 8, !tbaa !76
  %57 = icmp eq ptr %56, null
  br i1 %57, label %60, label %58

58:                                               ; preds = %54
  %char0 = load i8, ptr %56, align 1
  %59 = icmp eq i8 %char0, 0
  %spec.select81 = select i1 %59, ptr @.str.395, ptr @.str.396
  %spec.select82 = select i1 %59, ptr @.str.395, ptr %56
  br label %60

60:                                               ; preds = %58, %54
  %61 = phi ptr [ @.str.395, %54 ], [ %spec.select81, %58 ]
  %62 = phi ptr [ @.str.395, %54 ], [ %spec.select82, %58 ]
  %.in80 = getelementptr inbounds nuw i8, ptr %1, i64 16
  %63 = load ptr, ptr %.in80, align 8, !tbaa !77
  %.in79 = getelementptr inbounds nuw i8, ptr %1, i64 32
  %64 = load i32, ptr %.in79, align 8, !tbaa !78
  %.in = getelementptr inbounds nuw i8, ptr %1, i64 24
  %65 = load ptr, ptr %.in, align 8, !tbaa !79
  %66 = tail call i32 (ptr, ptr, ...) @fprintf(ptr noundef %.050, ptr noundef nonnull @.str.394, i32 noundef 2, ptr noundef nonnull @.str.395, i32 noundef %0, ptr noundef %65, i32 noundef %64, ptr noundef %63, ptr noundef nonnull %61, ptr noundef nonnull %62) #16
  %67 = tail call i32 (ptr, ptr, ...) @fprintf(ptr noundef %.050, ptr noundef nonnull @.str.397, i32 noundef 4, ptr noundef nonnull @.str.395, ptr noundef nonnull %spec.select) #16
  %68 = tail call i32 (ptr, ptr, ...) @fprintf(ptr noundef %.050, ptr noundef nonnull @.str.398, i32 noundef 4, ptr noundef nonnull @.str.395, ptr noundef nonnull %.048) #16
  br label %69

69:                                               ; preds = %10, %60, %3
  %.0 = phi i32 [ 0, %60 ], [ 0, %3 ], [ -1, %10 ]
  ret i32 %.0
}